; Function Attrs: mustprogress optsize uwtable
define hidden noundef i32 @_Z23funcwrapper_tp_traverseP7_objectPFiS0_PvES1_(ptr noundef %0, ptr noundef readonly captures(none) %1, ptr noundef %2) #0 {
  %4 = alloca %"class.nanobind::object", align 8
  %5 = tail call noundef ptr @_ZN8nanobind6detail11nb_inst_ptrEP7_object(ptr noundef %0) #27
  call void @llvm.lifetime.start.p0(i64 8, ptr nonnull %4) #28
  tail call void @llvm.experimental.noalias.scope.decl(metadata !3)
  %6 = tail call ptr @_ZN8nanobind6detail11type_casterISt8functionIFvvEEiE8from_cppERKS4_NS_9rv_policyEPNS0_12cleanup_listE(ptr noundef nonnull align 8 dereferenceable(32) %5, i32 noundef 7, ptr noundef null) #27, !noalias !3
  %.not.i = icmp eq ptr %6, null
  br i1 %.not.i, label %7, label %_ZN8nanobind4castIRSt8functionIFvvEEEENS_6objectEOT_NS_9rv_policyE.exit

7:                                                ; preds = %3
  tail call void @_ZN8nanobind6detail16raise_cast_errorEv() #29, !noalias !3
  unreachable

_ZN8nanobind4castIRSt8functionIFvvEEEENS_6objectEOT_NS_9rv_policyE.exit: ; preds = %3
  store ptr %6, ptr %4, align 8, !alias.scope !3
  %8 = call noundef nonnull align 8 dereferenceable(8) ptr @_ZNKR8nanobind6handle7dec_refEv(ptr noundef nonnull align 8 dereferenceable(8) %4) #27
  call void @llvm.lifetime.end.p0(i64 8, ptr nonnull %4) #28
  %9 = call noundef i32 %1(ptr noundef nonnull %6, ptr noundef %2) #30
  %.not18 = icmp eq i32 %9, 0
  br i1 %.not18, label %10, label %16

10:                                               ; preds = %_ZN8nanobind4castIRSt8functionIFvvEEEENS_6objectEOT_NS_9rv_policyE.exit
  %11 = getelementptr inbounds nuw i8, ptr %0, i64 8
  %12 = load ptr, ptr %11, align 8, !tbaa !6
  %.not19 = icmp eq ptr %12, null
  br i1 %.not19, label %15, label %13

13:                                               ; preds = %10
  %14 = call noundef i32 %1(ptr noundef nonnull %12, ptr noundef %2) #30
  %.not20 = icmp eq i32 %14, 0
  br i1 %.not20, label %15, label %16

15:                                               ; preds = %13, %10
  br label %16

16:                                               ; preds = %_ZN8nanobind4castIRSt8functionIFvvEEEENS_6objectEOT_NS_9rv_policyE.exit, %13, %15
  %.1 = phi i32 [ 0, %15 ], [ %14, %13 ], [ %9, %_ZN8nanobind4castIRSt8functionIFvvEEEENS_6objectEOT_NS_9rv_policyE.exit ]
  ret i32 %.1
}